target datalayout = "e-m:e-p270:32:32-p271:32:32-p272:64:64-i64:64-i128:128-f80:128-n8:16:32:64-S128"
target triple = "x86_64-pc-linux-gnu"

%struct.decode_as_s = type { ptr, ptr, i32, i32, ptr, ptr, ptr, ptr, ptr, ptr, ptr }
%struct.reassembly_table = type { ptr, ptr, ptr, ptr, ptr }
%struct.reassembly_table_functions = type { ptr, ptr, ptr, ptr, ptr, ptr }

@rtp_handle = internal global ptr null, align 8
@proto_rtp = internal global i32 0, align 4
@rtp_rfc4571_handle = internal global ptr null, align 8
@.str.51 = private unnamed_addr constant [12 x i8] c"rtp.hdr_ext\00", align 1
@.str.75 = private unnamed_addr constant [19 x i8] c"rtp.ext.rfc5285.id\00", align 1
@proto_register_rtp.ett = internal global [9 x ptr] [ptr @ett_rtp, ptr @ett_csrc_list, ptr @ett_hdr_ext, ptr @ett_hdr_ext_rfc5285, ptr @ett_rtp_setup, ptr @ett_rtp_rfc2198, ptr @ett_rtp_rfc2198_hdr, ptr @ett_rtp_fragment, ptr @ett_rtp_fragments], align 16
@proto_register_rtp.rtp_da = internal global %struct.decode_as_s { ptr @.str.129, ptr @.str.130, i32 1, i32 0, ptr @proto_register_rtp.rtp_da_values, ptr null, ptr null, ptr @decode_as_default_populate_list, ptr @decode_as_default_reset, ptr @decode_as_default_change, ptr null }, align 8
@.str.129 = private unnamed_addr constant [4 x i8] c"rtp\00", align 1
@.str.130 = private unnamed_addr constant [7 x i8] c"rtp.pt\00", align 1
@.str.131 = private unnamed_addr constant [29 x i8] c"Real-Time Transport Protocol\00", align 1
@.str.132 = private unnamed_addr constant [4 x i8] c"RTP\00", align 1
@.str.133 = private unnamed_addr constant [48 x i8] c"RTP Payload for Redundant Audio Data (RFC 2198)\00", align 1
@.str.134 = private unnamed_addr constant [14 x i8] c"RAD (RFC2198)\00", align 1
@.str.135 = private unnamed_addr constant [12 x i8] c"rtp_rfc2198\00", align 1
@proto_rtp_rfc2198 = internal global i32 0, align 4
@.str.136 = private unnamed_addr constant [12 x i8] c"rtp.rfc2198\00", align 1
@rtp_rfc2198_handle = internal global ptr null, align 8
@.str.137 = private unnamed_addr constant [12 x i8] c"rtp.rfc4571\00", align 1
@rtp_tap = internal global i32 0, align 4
@.str.138 = private unnamed_addr constant [17 x i8] c"RTP payload type\00", align 1
@rtp_pt_dissector_table = internal global ptr null, align 8
@.str.139 = private unnamed_addr constant [21 x i8] c"rtp_dyn_payload_type\00", align 1
@.str.140 = private unnamed_addr constant [25 x i8] c"Dynamic RTP payload type\00", align 1
@rtp_dyn_pt_dissector_table = internal global ptr null, align 8
@.str.141 = private unnamed_addr constant [21 x i8] c"RTP header extension\00", align 1
@rtp_hdr_ext_dissector_table = internal global ptr null, align 8
@.str.142 = private unnamed_addr constant [40 x i8] c"RTP Generic header extension (RFC 5285)\00", align 1
@rtp_hdr_ext_rfc5285_dissector_table = internal global ptr null, align 8
@.str.143 = private unnamed_addr constant [16 x i8] c"show_setup_info\00", align 1
@.str.144 = private unnamed_addr constant [30 x i8] c"Show stream setup information\00", align 1
@.str.145 = private unnamed_addr constant [84 x i8] c"Where available, show which protocol and frame caused this RTP stream to be created\00", align 1
@global_rtp_show_setup_info = internal global i8 1, align 1
@.str.146 = private unnamed_addr constant [14 x i8] c"heuristic_rtp\00", align 1
@.str.147 = private unnamed_addr constant [22 x i8] c"desegment_rtp_streams\00", align 1
@.str.148 = private unnamed_addr constant [45 x i8] c"Allow subdissector to reassemble RTP streams\00", align 1
@.str.149 = private unnamed_addr constant [63 x i8] c"Whether subdissector can request RTP streams to be reassembled\00", align 1
@desegment_rtp = internal global i8 1, align 1
@.str.150 = private unnamed_addr constant [14 x i8] c"version0_type\00", align 1
@.str.151 = private unnamed_addr constant [31 x i8] c"Treat RTP version 0 packets as\00", align 1
@.str.152 = private unnamed_addr constant [131 x i8] c"If an RTP version 0 packet is encountered, it can be treated as an invalid or ZRTP packet, a CLASSIC-STUN packet, or a T.38 packet\00", align 1
@global_rtp_version0_type = internal global i32 5, align 4
@.str.153 = private unnamed_addr constant [21 x i8] c"rfc2198_payload_type\00", align 1
@.str.154 = private unnamed_addr constant [22 x i8] c"rfc2198_deencapsulate\00", align 1
@.str.155 = private unnamed_addr constant [41 x i8] c"De-encapsulate RFC 2198 primary encoding\00", align 1
@.str.156 = private unnamed_addr constant [86 x i8] c"De-encapsulate the primary encoding from the RAD header for RTP analysis and playback\00", align 1
@rfc2198_deencapsulate = internal global i8 1, align 1
@rtp_reassembly_table = internal global %struct.reassembly_table zeroinitializer, align 8
@addresses_reassembly_table_functions = external constant %struct.reassembly_table_functions, align 8

; Function Attrs: null_pointer_is_valid sspstrong uwtable
define hidden void @proto_register_rtp() #1 {
  %1 = alloca ptr, align 8
  %2 = alloca ptr, align 8
  call void @llvm.lifetime.start.p0(i64 8, ptr %1) #14
  call void @llvm.lifetime.start.p0(i64 8, ptr %2) #14
  %3 = call i32 @proto_register_protocol(ptr noundef @.str.131, ptr noundef @.str.132, ptr noundef @.str.129)
  store i32 %3, ptr @proto_rtp, align 4
  %4 = load i32, ptr @proto_rtp, align 4
  %5 = call i32 @proto_register_protocol_in_name_only(ptr noundef @.str.133, ptr noundef @.str.134, ptr noundef @.str.135, i32 noundef %4, i32 noundef 1)
  store i32 %5, ptr @proto_rtp_rfc2198, align 4
  %6 = load i32, ptr @proto_rtp, align 4
  call void @proto_register_field_array(i32 noundef %6, ptr noundef @proto_register_rtp.hf, i32 noundef 44)
  call void @proto_register_subtree_array(ptr noundef @proto_register_rtp.ett, i32 noundef 9)
  %7 = load i32, ptr @proto_rtp, align 4
  %8 = call ptr @expert_register_protocol(i32 noundef %7)
  store ptr %8, ptr %2, align 8
  %9 = load ptr, ptr %2, align 8
  call void @expert_register_field_array(ptr noundef %9, ptr noundef @proto_register_rtp.ei, i32 noundef 3)
  %10 = load i32, ptr @proto_rtp, align 4
  %11 = call ptr @register_dissector(ptr noundef @.str.129, ptr noundef @dissect_rtp, i32 noundef %10)
  store ptr %11, ptr @rtp_handle, align 8
  %12 = load i32, ptr @proto_rtp_rfc2198, align 4
  %13 = call ptr @register_dissector(ptr noundef @.str.136, ptr noundef @dissect_rtp_rfc2198, i32 noundef %12)
  store ptr %13, ptr @rtp_rfc2198_handle, align 8
  %14 = load i32, ptr @proto_rtp, align 4
  %15 = call ptr @register_dissector(ptr noundef @.str.137, ptr noundef @dissect_rtp_rfc4571, i32 noundef %14)
  store ptr %15, ptr @rtp_rfc4571_handle, align 8
  %16 = call i32 @register_tap(ptr noundef @.str.129)
  store i32 %16, ptr @rtp_tap, align 4
  %17 = load i32, ptr @proto_rtp, align 4
  %18 = call ptr @register_dissector_table(ptr noundef @.str.130, ptr noundef @.str.138, i32 noundef %17, i32 noundef 4, i32 noundef 1)
  store ptr %18, ptr @rtp_pt_dissector_table, align 8
  %19 = load i32, ptr @proto_rtp, align 4
  %20 = call ptr @register_dissector_table(ptr noundef @.str.139, ptr noundef @.str.140, i32 noundef %19, i32 noundef 26, i32 noundef 1)
  store ptr %20, ptr @rtp_dyn_pt_dissector_table, align 8
  %21 = load i32, ptr @proto_rtp, align 4
  %22 = call ptr @register_dissector_table(ptr noundef @.str.51, ptr noundef @.str.141, i32 noundef %21, i32 noundef 7, i32 noundef 2)
  store ptr %22, ptr @rtp_hdr_ext_dissector_table, align 8
  %23 = load i32, ptr @proto_rtp, align 4
  %24 = call ptr @register_dissector_table(ptr noundef @.str.75, ptr noundef @.str.142, i32 noundef %23, i32 noundef 4, i32 noundef 1)
  store ptr %24, ptr @rtp_hdr_ext_rfc5285_dissector_table, align 8
  %25 = load i32, ptr @proto_rtp, align 4
  %26 = call ptr @prefs_register_protocol(i32 noundef %25, ptr noundef null)
  store ptr %26, ptr %1, align 8
  %27 = load ptr, ptr %1, align 8
  call void @prefs_register_bool_preference(ptr noundef %27, ptr noundef @.str.143, ptr noundef @.str.144, ptr noundef @.str.145, ptr noundef @global_rtp_show_setup_info)
  %28 = load ptr, ptr %1, align 8
  call void @prefs_register_obsolete_preference(ptr noundef %28, ptr noundef @.str.146)
  %29 = load ptr, ptr %1, align 8
  call void @prefs_register_bool_preference(ptr noundef %29, ptr noundef @.str.147, ptr noundef @.str.148, ptr noundef @.str.149, ptr noundef @desegment_rtp)
  %30 = load ptr, ptr %1, align 8
  call void @prefs_register_enum_preference(ptr noundef %30, ptr noundef @.str.150, ptr noundef @.str.151, ptr noundef @.str.152, ptr noundef @global_rtp_version0_type, ptr noundef @rtp_version0_types, i1 noundef zeroext false)
  %31 = load ptr, ptr %1, align 8
  call void @prefs_register_obsolete_preference(ptr noundef %31, ptr noundef @.str.153)
  %32 = load ptr, ptr %1, align 8
  call void @prefs_register_bool_preference(ptr noundef %32, ptr noundef @.str.154, ptr noundef @.str.155, ptr noundef @.str.156, ptr noundef @rfc2198_deencapsulate)
  call void @reassembly_table_register(ptr noundef @rtp_reassembly_table, ptr noundef @addresses_reassembly_table_functions)
  call void @register_init_routine(ptr noundef @rtp_dyn_payloads_init)
  call void @register_decode_as(ptr noundef @proto_register_rtp.rtp_da)
  call void @llvm.lifetime.end.p0(i64 8, ptr %2) #14
  call void @llvm.lifetime.end.p0(i64 8, ptr %1) #14
  ret void
}