; Function Attrs: null_pointer_is_valid sspstrong uwtable
define hidden void @proto_register_rtp() local_unnamed_addr #1 {
  %1 = tail call i32 @proto_register_protocol(ptr noundef nonnull @.str.131, ptr noundef nonnull @.str.132, ptr noundef nonnull @.str.129)
  store i32 %1, ptr @proto_rtp, align 4
  %2 = tail call i32 @proto_register_protocol_in_name_only(ptr noundef nonnull @.str.133, ptr noundef nonnull @.str.134, ptr noundef nonnull @.str.135, i32 noundef %1, i32 noundef 1)
  store i32 %2, ptr @proto_rtp_rfc2198, align 4
  %3 = load i32, ptr @proto_rtp, align 4
  tail call void @proto_register_field_array(i32 noundef %3, ptr noundef nonnull @proto_register_rtp.hf, i32 noundef 44)
  tail call void @proto_register_subtree_array(ptr noundef nonnull @proto_register_rtp.ett, i32 noundef 9)
  %4 = load i32, ptr @proto_rtp, align 4
  %5 = tail call ptr @expert_register_protocol(i32 noundef %4)
  tail call void @expert_register_field_array(ptr noundef %5, ptr noundef nonnull @proto_register_rtp.ei, i32 noundef 3)
  %6 = load i32, ptr @proto_rtp, align 4
  %7 = tail call ptr @register_dissector(ptr noundef nonnull @.str.129, ptr noundef nonnull @dissect_rtp, i32 noundef %6)
  store ptr %7, ptr @rtp_handle, align 8
  %8 = load i32, ptr @proto_rtp_rfc2198, align 4
  %9 = tail call ptr @register_dissector(ptr noundef nonnull @.str.136, ptr noundef nonnull @dissect_rtp_rfc2198, i32 noundef %8)
  store ptr %9, ptr @rtp_rfc2198_handle, align 8
  %10 = load i32, ptr @proto_rtp, align 4
  %11 = tail call ptr @register_dissector(ptr noundef nonnull @.str.137, ptr noundef nonnull @dissect_rtp_rfc4571, i32 noundef %10)
  store ptr %11, ptr @rtp_rfc4571_handle, align 8
  %12 = tail call i32 @register_tap(ptr noundef nonnull @.str.129)
  store i32 %12, ptr @rtp_tap, align 4
  %13 = load i32, ptr @proto_rtp, align 4
  %14 = tail call ptr @register_dissector_table(ptr noundef nonnull @.str.130, ptr noundef nonnull @.str.138, i32 noundef %13, i32 noundef 4, i32 noundef 1)
  store ptr %14, ptr @rtp_pt_dissector_table, align 8
  %15 = load i32, ptr @proto_rtp, align 4
  %16 = tail call ptr @register_dissector_table(ptr noundef nonnull @.str.139, ptr noundef nonnull @.str.140, i32 noundef %15, i32 noundef 26, i32 noundef 1)
  store ptr %16, ptr @rtp_dyn_pt_dissector_table, align 8
  %17 = load i32, ptr @proto_rtp, align 4
  %18 = tail call ptr @register_dissector_table(ptr noundef nonnull @.str.51, ptr noundef nonnull @.str.141, i32 noundef %17, i32 noundef 7, i32 noundef 2)
  store ptr %18, ptr @rtp_hdr_ext_dissector_table, align 8
  %19 = load i32, ptr @proto_rtp, align 4
  %20 = tail call ptr @register_dissector_table(ptr noundef nonnull @.str.75, ptr noundef nonnull @.str.142, i32 noundef %19, i32 noundef 4, i32 noundef 1)
  store ptr %20, ptr @rtp_hdr_ext_rfc5285_dissector_table, align 8
  %21 = load i32, ptr @proto_rtp, align 4
  %22 = tail call ptr @prefs_register_protocol(i32 noundef %21, ptr noundef null)
  tail call void @prefs_register_bool_preference(ptr noundef %22, ptr noundef nonnull @.str.143, ptr noundef nonnull @.str.144, ptr noundef nonnull @.str.145, ptr noundef nonnull @global_rtp_show_setup_info)
  tail call void @prefs_register_obsolete_preference(ptr noundef %22, ptr noundef nonnull @.str.146)
  tail call void @prefs_register_bool_preference(ptr noundef %22, ptr noundef nonnull @.str.147, ptr noundef nonnull @.str.148, ptr noundef nonnull @.str.149, ptr noundef nonnull @desegment_rtp)
  tail call void @prefs_register_enum_preference(ptr noundef %22, ptr noundef nonnull @.str.150, ptr noundef nonnull @.str.151, ptr noundef nonnull @.str.152, ptr noundef nonnull @global_rtp_version0_type, ptr noundef nonnull @rtp_version0_types, i1 noundef zeroext false)
  tail call void @prefs_register_obsolete_preference(ptr noundef %22, ptr noundef nonnull @.str.153)
  tail call void @prefs_register_bool_preference(ptr noundef %22, ptr noundef nonnull @.str.154, ptr noundef nonnull @.str.155, ptr noundef nonnull @.str.156, ptr noundef nonnull @rfc2198_deencapsulate)
  tail call void @reassembly_table_register(ptr noundef nonnull @rtp_reassembly_table, ptr noundef nonnull @addresses_reassembly_table_functions)
  tail call void @register_init_routine(ptr noundef nonnull @rtp_dyn_payloads_init)
  tail call void @register_decode_as(ptr noundef nonnull @proto_register_rtp.rtp_da)
  ret void
}